target datalayout = "e-m:e-p270:32:32-p271:32:32-p272:64:64-i64:64-i128:128-f80:128-n8:16:32:64-S128"
target triple = "x86_64-pc-linux-gnu"

%struct.nk_vec2 = type { float, float }

; Function Attrs: nounwind uwtable
define <2 x float> @nk_vec2(float noundef %0, float noundef %1) #2 {
  %3 = alloca %struct.nk_vec2, align 4
  %4 = alloca float, align 4
  %5 = alloca float, align 4
  store float %0, ptr %4, align 4, !tbaa !4
  store float %1, ptr %5, align 4, !tbaa !4
  %6 = load float, ptr %4, align 4, !tbaa !4
  %7 = getelementptr inbounds nuw %struct.nk_vec2, ptr %3, i32 0, i32 0
  store float %6, ptr %7, align 4, !tbaa !15
  %8 = load float, ptr %5, align 4, !tbaa !4
  %9 = getelementptr inbounds nuw %struct.nk_vec2, ptr %3, i32 0, i32 1
  store float %8, ptr %9, align 4, !tbaa !17
  %10 = load <2 x float>, ptr %3, align 4
  ret <2 x float> %10
}

; Function Attrs: nounwind uwtable
define internal float @nk_cos(float noundef %0) #0 {
  %2 = alloca float, align 4
  store float %0, ptr %2, align 4, !tbaa !4
  %3 = load float, ptr %2, align 4, !tbaa !4
  %4 = load float, ptr %2, align 4, !tbaa !4
  %5 = load float, ptr %2, align 4, !tbaa !4
  %6 = load float, ptr %2, align 4, !tbaa !4
  %7 = load float, ptr %2, align 4, !tbaa !4
  %8 = load float, ptr %2, align 4, !tbaa !4
  %9 = load float, ptr %2, align 4, !tbaa !4
  %10 = load float, ptr %2, align 4, !tbaa !4
  %11 = call float @llvm.fmuladd.f32(float %10, float 0xBEF3B04360000000, float 0x3F3EEE46C0000000)
  %12 = call float @llvm.fmuladd.f32(float %9, float %11, float 0xBF6F8C50E0000000)
  %13 = call float @llvm.fmuladd.f32(float %8, float %12, float 0x3F7E32C840000000)
  %14 = call float @llvm.fmuladd.f32(float %7, float %13, float 0x3F9D5B3EC0000000)
  %15 = call float @llvm.fmuladd.f32(float %6, float %14, float 0x3F8A8176E0000000)
  %16 = call float @llvm.fmuladd.f32(float %5, float %15, float 0xBFE0352100000000)
  %17 = call float @llvm.fmuladd.f32(float %4, float %16, float 0x3F548F6E20000000)
  %18 = call float @llvm.fmuladd.f32(float %3, float %17, float 0x3FEFFFAC20000000)
  ret float %18
}

; Function Attrs: nounwind uwtable
define internal float @nk_sin(float noundef %0) #0 {
  %2 = alloca float, align 4
  store float %0, ptr %2, align 4, !tbaa !4
  %3 = load float, ptr %2, align 4, !tbaa !4
  %4 = load float, ptr %2, align 4, !tbaa !4
  %5 = load float, ptr %2, align 4, !tbaa !4
  %6 = load float, ptr %2, align 4, !tbaa !4
  %7 = load float, ptr %2, align 4, !tbaa !4
  %8 = load float, ptr %2, align 4, !tbaa !4
  %9 = load float, ptr %2, align 4, !tbaa !4
  %10 = call float @llvm.fmuladd.f32(float %9, float 0x3F221E6B20000000, float 0xBF68E74260000000)
  %11 = call float @llvm.fmuladd.f32(float %8, float %10, float 0x3F954D4AE0000000)
  %12 = call float @llvm.fmuladd.f32(float %7, float %11, float 0xBF9B608240000000)
  %13 = call float @llvm.fmuladd.f32(float %6, float %12, float 0xBFC1AC90C0000000)
  %14 = call float @llvm.fmuladd.f32(float %5, float %13, float 0xBF88D65CA0000000)
  %15 = call float @llvm.fmuladd.f32(float %4, float %14, float 0x3FF0038DC0000000)
  %16 = call float @llvm.fmuladd.f32(float %3, float %15, float 0x398F004B00000000)
  ret float %16
}

; Function Attrs: nounwind uwtable
define void @nk_draw_list_path_arc_to(ptr noundef %0, <2 x float> %1, float noundef %2, float noundef %3, float noundef %4, i32 noundef %5) #2 {
  %7 = alloca %struct.nk_vec2, align 4
  %8 = alloca ptr, align 8
  %9 = alloca float, align 4
  %10 = alloca float, align 4
  %11 = alloca float, align 4
  %12 = alloca i32, align 4
  %13 = alloca i32, align 4
  %14 = alloca i32, align 4
  %15 = alloca float, align 4
  %16 = alloca float, align 4
  %17 = alloca float, align 4
  %18 = alloca float, align 4
  %19 = alloca float, align 4
  %20 = alloca float, align 4
  %21 = alloca float, align 4
  %22 = alloca float, align 4
  %23 = alloca float, align 4
  %24 = alloca %struct.nk_vec2, align 4
  store <2 x float> %1, ptr %7, align 4
  store ptr %0, ptr %8, align 8, !tbaa !306
  store float %2, ptr %9, align 4, !tbaa !4
  store float %3, ptr %10, align 4, !tbaa !4
  store float %4, ptr %11, align 4, !tbaa !4
  store i32 %5, ptr %12, align 4, !tbaa !13
  call void @llvm.lifetime.start.p0(i64 4, ptr %13) #10
  store i32 0, ptr %13, align 4, !tbaa !13
  %25 = load ptr, ptr %8, align 8, !tbaa !306
  %26 = icmp ne ptr %25, null
  br i1 %26, label %28, label %27

27:                                               ; preds = %6
  store i32 1, ptr %14, align 4
  br label %88

28:                                               ; preds = %6
  %29 = load float, ptr %9, align 4, !tbaa !4
  %30 = fcmp oeq float %29, 0.000000e+00
  br i1 %30, label %31, label %32

31:                                               ; preds = %28
  store i32 1, ptr %14, align 4
  br label %88

32:                                               ; preds = %28
  call void @llvm.lifetime.start.p0(i64 4, ptr %15) #10
  %33 = load float, ptr %11, align 4, !tbaa !4
  %34 = load float, ptr %10, align 4, !tbaa !4
  %35 = fsub float %33, %34
  %36 = load i32, ptr %12, align 4, !tbaa !13
  %37 = uitofp i32 %36 to float
  %38 = fdiv float %35, %37
  store float %38, ptr %15, align 4, !tbaa !4
  call void @llvm.lifetime.start.p0(i64 4, ptr %16) #10
  %39 = load float, ptr %15, align 4, !tbaa !4
  %40 = call float @nk_sin(float noundef %39)
  store float %40, ptr %16, align 4, !tbaa !4
  call void @llvm.lifetime.start.p0(i64 4, ptr %17) #10
  %41 = load float, ptr %15, align 4, !tbaa !4
  %42 = call float @nk_cos(float noundef %41)
  store float %42, ptr %17, align 4, !tbaa !4
  call void @llvm.lifetime.start.p0(i64 4, ptr %18) #10
  %43 = load float, ptr %10, align 4, !tbaa !4
  %44 = call float @nk_cos(float noundef %43)
  %45 = load float, ptr %9, align 4, !tbaa !4
  %46 = fmul float %44, %45
  store float %46, ptr %18, align 4, !tbaa !4
  call void @llvm.lifetime.start.p0(i64 4, ptr %19) #10
  %47 = load float, ptr %10, align 4, !tbaa !4
  %48 = call float @nk_sin(float noundef %47)
  %49 = load float, ptr %9, align 4, !tbaa !4
  %50 = fmul float %48, %49
  store float %50, ptr %19, align 4, !tbaa !4
  store i32 0, ptr %13, align 4, !tbaa !13
  br label %51

51:                                               ; preds = %84, %32
  %52 = load i32, ptr %13, align 4, !tbaa !13
  %53 = load i32, ptr %12, align 4, !tbaa !13
  %54 = icmp ule i32 %52, %53
  br i1 %54, label %55, label %87

55:                                               ; preds = %51
  call void @llvm.lifetime.start.p0(i64 4, ptr %20) #10
  call void @llvm.lifetime.start.p0(i64 4, ptr %21) #10
  call void @llvm.lifetime.start.p0(i64 4, ptr %22) #10
  %56 = getelementptr inbounds nuw %struct.nk_vec2, ptr %7, i32 0, i32 0
  %57 = load float, ptr %56, align 4, !tbaa !15
  %58 = load float, ptr %18, align 4, !tbaa !4
  %59 = fadd float %57, %58
  store float %59, ptr %22, align 4, !tbaa !4
  call void @llvm.lifetime.start.p0(i64 4, ptr %23) #10
  %60 = getelementptr inbounds nuw %struct.nk_vec2, ptr %7, i32 0, i32 1
  %61 = load float, ptr %60, align 4, !tbaa !17
  %62 = load float, ptr %19, align 4, !tbaa !4
  %63 = fadd float %61, %62
  store float %63, ptr %23, align 4, !tbaa !4
  %64 = load ptr, ptr %8, align 8, !tbaa !306
  %65 = load float, ptr %22, align 4, !tbaa !4
  %66 = load float, ptr %23, align 4, !tbaa !4
  %67 = call <2 x float> @nk_vec2(float noundef %65, float noundef %66)
  store <2 x float> %67, ptr %24, align 4
  %68 = load <2 x float>, ptr %24, align 4
  call void @nk_draw_list_path_line_to(ptr noundef %64, <2 x float> %68)
  %69 = load float, ptr %18, align 4, !tbaa !4
  %70 = load float, ptr %17, align 4, !tbaa !4
  %71 = load float, ptr %19, align 4, !tbaa !4
  %72 = load float, ptr %16, align 4, !tbaa !4
  %73 = fmul float %71, %72
  %74 = fneg float %73
  %75 = call float @llvm.fmuladd.f32(float %69, float %70, float %74)
  store float %75, ptr %20, align 4, !tbaa !4
  %76 = load float, ptr %19, align 4, !tbaa !4
  %77 = load float, ptr %17, align 4, !tbaa !4
  %78 = load float, ptr %18, align 4, !tbaa !4
  %79 = load float, ptr %16, align 4, !tbaa !4
  %80 = fmul float %78, %79
  %81 = call float @llvm.fmuladd.f32(float %76, float %77, float %80)
  store float %81, ptr %21, align 4, !tbaa !4
  %82 = load float, ptr %20, align 4, !tbaa !4
  store float %82, ptr %18, align 4, !tbaa !4
  %83 = load float, ptr %21, align 4, !tbaa !4
  store float %83, ptr %19, align 4, !tbaa !4
  call void @llvm.lifetime.end.p0(i64 4, ptr %23) #10
  call void @llvm.lifetime.end.p0(i64 4, ptr %22) #10
  call void @llvm.lifetime.end.p0(i64 4, ptr %21) #10
  call void @llvm.lifetime.end.p0(i64 4, ptr %20) #10
  br label %84

84:                                               ; preds = %55
  %85 = load i32, ptr %13, align 4, !tbaa !13
  %86 = add i32 %85, 1
  store i32 %86, ptr %13, align 4, !tbaa !13
  br label %51, !llvm.loop !356

87:                                               ; preds = %51
  call void @llvm.lifetime.end.p0(i64 4, ptr %19) #10
  call void @llvm.lifetime.end.p0(i64 4, ptr %18) #10
  call void @llvm.lifetime.end.p0(i64 4, ptr %17) #10
  call void @llvm.lifetime.end.p0(i64 4, ptr %16) #10
  call void @llvm.lifetime.end.p0(i64 4, ptr %15) #10
  store i32 0, ptr %14, align 4
  br label %88

88:                                               ; preds = %87, %31, %27
  call void @llvm.lifetime.end.p0(i64 4, ptr %13) #10
  %89 = load i32, ptr %14, align 4
  switch i32 %89, label %91 [
    i32 0, label %90
    i32 1, label %90
  ]

90:                                               ; preds = %88, %88
  ret void

91:                                               ; preds = %88
  unreachable
}