; Function Attrs: nounwind uwtable
define void @nk_draw_list_path_arc_to(ptr noundef captures(address_is_null) %0, <2 x float> %1, float noundef %2, float noundef %3, float noundef %4, i32 noundef %5) local_unnamed_addr #21 {
  %.not = icmp eq ptr %0, null
  %7 = fcmp oeq float %2, 0.000000e+00
  %or.cond = or i1 %.not, %7
  br i1 %or.cond, label %.loopexit, label %8

8:                                                ; preds = %6
  %9 = fsub float %4, %3
  %10 = uitofp i32 %5 to float
  %11 = fdiv float %9, %10
  %12 = tail call float @llvm.fmuladd.f32(float %11, float 0x3F221E6B20000000, float 0xBF68E74260000000)
  %13 = tail call float @llvm.fmuladd.f32(float %11, float %12, float 0x3F954D4AE0000000)
  %14 = tail call float @llvm.fmuladd.f32(float %11, float %13, float 0xBF9B608240000000)
  %15 = tail call float @llvm.fmuladd.f32(float %11, float %14, float 0xBFC1AC90C0000000)
  %16 = tail call float @llvm.fmuladd.f32(float %11, float %15, float 0xBF88D65CA0000000)
  %17 = tail call float @llvm.fmuladd.f32(float %11, float %16, float 0x3FF0038DC0000000)
  %18 = tail call float @llvm.fmuladd.f32(float %11, float %17, float 0x398F004B00000000)
  %19 = tail call float @llvm.fmuladd.f32(float %11, float 0xBEF3B04360000000, float 0x3F3EEE46C0000000)
  %20 = tail call float @llvm.fmuladd.f32(float %11, float %19, float 0xBF6F8C50E0000000)
  %21 = tail call float @llvm.fmuladd.f32(float %11, float %20, float 0x3F7E32C840000000)
  %22 = tail call float @llvm.fmuladd.f32(float %11, float %21, float 0x3F9D5B3EC0000000)
  %23 = tail call float @llvm.fmuladd.f32(float %11, float %22, float 0x3F8A8176E0000000)
  %24 = tail call float @llvm.fmuladd.f32(float %11, float %23, float 0xBFE0352100000000)
  %25 = tail call float @llvm.fmuladd.f32(float %11, float %24, float 0x3F548F6E20000000)
  %26 = tail call float @llvm.fmuladd.f32(float %11, float %25, float 0x3FEFFFAC20000000)
  %27 = tail call float @llvm.fmuladd.f32(float %3, float 0xBEF3B04360000000, float 0x3F3EEE46C0000000)
  %28 = tail call float @llvm.fmuladd.f32(float %3, float %27, float 0xBF6F8C50E0000000)
  %29 = tail call float @llvm.fmuladd.f32(float %3, float %28, float 0x3F7E32C840000000)
  %30 = tail call float @llvm.fmuladd.f32(float %3, float %29, float 0x3F9D5B3EC0000000)
  %31 = tail call float @llvm.fmuladd.f32(float %3, float %30, float 0x3F8A8176E0000000)
  %32 = tail call float @llvm.fmuladd.f32(float %3, float %31, float 0xBFE0352100000000)
  %33 = tail call float @llvm.fmuladd.f32(float %3, float %32, float 0x3F548F6E20000000)
  %34 = tail call float @llvm.fmuladd.f32(float %3, float %33, float 0x3FEFFFAC20000000)
  %35 = fmul float %2, %34
  %36 = tail call float @llvm.fmuladd.f32(float %3, float 0x3F221E6B20000000, float 0xBF68E74260000000)
  %37 = tail call float @llvm.fmuladd.f32(float %3, float %36, float 0x3F954D4AE0000000)
  %38 = tail call float @llvm.fmuladd.f32(float %3, float %37, float 0xBF9B608240000000)
  %39 = tail call float @llvm.fmuladd.f32(float %3, float %38, float 0xBFC1AC90C0000000)
  %40 = tail call float @llvm.fmuladd.f32(float %3, float %39, float 0xBF88D65CA0000000)
  %41 = tail call float @llvm.fmuladd.f32(float %3, float %40, float 0x3FF0038DC0000000)
  %42 = tail call float @llvm.fmuladd.f32(float %3, float %41, float 0x398F004B00000000)
  %43 = fmul float %2, %42
  %.sroa.028.0.vec.extract = extractelement <2 x float> %1, i64 0
  %.sroa.028.4.vec.extract = extractelement <2 x float> %1, i64 1
  %44 = fneg float %18
  br label %45

45:                                               ; preds = %8, %45
  %.036 = phi i32 [ 0, %8 ], [ %52, %45 ]
  %.02935 = phi float [ %35, %8 ], [ %49, %45 ]
  %.03034 = phi float [ %43, %8 ], [ %51, %45 ]
  %46 = fadd float %.sroa.028.0.vec.extract, %.02935
  %47 = fadd float %.sroa.028.4.vec.extract, %.03034
  %.sroa.0.0.vec.insert.i = insertelement <2 x float> poison, float %46, i64 0
  %.sroa.0.4.vec.insert.i = insertelement <2 x float> %.sroa.0.0.vec.insert.i, float %47, i64 1
  tail call void @nk_draw_list_path_line_to(ptr noundef nonnull %0, <2 x float> %.sroa.0.4.vec.insert.i)
  %48 = fmul float %.03034, %44
  %49 = tail call float @llvm.fmuladd.f32(float %.02935, float %26, float %48)
  %50 = fmul float %18, %.02935
  %51 = tail call float @llvm.fmuladd.f32(float %.03034, float %26, float %50)
  %52 = add i32 %.036, 1
  %.not33 = icmp ugt i32 %52, %5
  br i1 %.not33, label %.loopexit, label %45, !llvm.loop !271

.loopexit:                                        ; preds = %45, %6
  ret void
}